; ModuleID = 'source-C-CXX/11/1250.cpp'
source_filename = "source-C-CXX/11/1250.cpp"
target datalayout = "e-m:e-p270:32:32-p271:32:32-p272:64:64-i64:64-f80:128-n8:16:32:64-S128"
target triple = "x86_64-pc-linux-gnu"

%"class.std::ios_base::Init" = type { i8 }
%"class.std::basic_istream" = type { i32 (...)**, i64, %"class.std::basic_ios" }
%"class.std::basic_ios" = type { %"class.std::ios_base", %"class.std::basic_ostream"*, i8, i8, %"class.std::basic_streambuf"*, %"class.std::ctype"*, %"class.std::num_put"*, %"class.std::num_get"* }
%"class.std::ios_base" = type { i32 (...)**, i64, i64, i32, i32, i32, %"struct.std::ios_base::_Callback_list"*, %"struct.std::ios_base::_Words", [8 x %"struct.std::ios_base::_Words"], i32, %"struct.std::ios_base::_Words"*, %"class.std::locale" }
%"struct.std::ios_base::_Callback_list" = type { %"struct.std::ios_base::_Callback_list"*, void (i32, %"class.std::ios_base"*, i32)*, i32, i32 }
%"struct.std::ios_base::_Words" = type { i8*, i64 }
%"class.std::locale" = type { %"class.std::locale::_Impl"* }
%"class.std::locale::_Impl" = type { i32, %"class.std::locale::facet"**, i64, %"class.std::locale::facet"**, i8** }
%"class.std::locale::facet" = type <{ i32 (...)**, i32, [4 x i8] }>
%"class.std::basic_ostream" = type { i32 (...)**, %"class.std::basic_ios" }
%"class.std::basic_streambuf" = type { i32 (...)**, i8*, i8*, i8*, i8*, i8*, i8*, %"class.std::locale" }
%"class.std::ctype" = type <{ %"class.std::locale::facet.base", [4 x i8], %struct.__locale_struct*, i8, [7 x i8], i32*, i32*, i16*, i8, [256 x i8], [256 x i8], i8, [6 x i8] }>
%"class.std::locale::facet.base" = type <{ i32 (...)**, i32 }>
%struct.__locale_struct = type { [13 x %struct.__locale_data*], i16*, i32*, i32*, [13 x i8*] }
%struct.__locale_data = type opaque
%"class.std::num_put" = type { %"class.std::locale::facet.base", [4 x i8] }
%"class.std::num_get" = type { %"class.std::locale::facet.base", [4 x i8] }

@_ZStL8__ioinit = internal global %"class.std::ios_base::Init" zeroinitializer, align 1
@__dso_handle = external hidden global i8
@_ZSt3cin = external global %"class.std::basic_istream", align 8
@_ZSt4cout = external global %"class.std::basic_ostream", align 8
@llvm.global_ctors = appending global [1 x { i32, void ()*, i8* }] [{ i32, void ()*, i8* } { i32 65535, void ()* @_GLOBAL__sub_I_1250.cpp, i8* null }]

declare void @_ZNSt8ios_base4InitC1Ev(%"class.std::ios_base::Init"* nonnull align 1 dereferenceable(1)) unnamed_addr #0

; Function Attrs: nounwind
declare void @_ZNSt8ios_base4InitD1Ev(%"class.std::ios_base::Init"* nonnull align 1 dereferenceable(1)) unnamed_addr #1

; Function Attrs: nofree nounwind
declare i32 @__cxa_atexit(void (i8*)*, i8*, i8*) local_unnamed_addr #2

; Function Attrs: mustprogress norecurse sspstrong uwtable
define dso_local i32 @main() local_unnamed_addr #3 {
  %1 = alloca [100 x [15 x i32]], align 16
  %2 = bitcast [100 x [15 x i32]]* %1 to i8*
  call void @llvm.lifetime.start.p0i8(i64 6000, i8* nonnull %2) #9
  %3 = getelementptr inbounds [100 x [15 x i32]], [100 x [15 x i32]]* %1, i64 0, i64 0, i64 0
  %4 = call nonnull align 8 dereferenceable(16) %"class.std::basic_istream"* @_ZNSirsERi(%"class.std::basic_istream"* nonnull align 8 dereferenceable(16) @_ZSt3cin, i32* nonnull align 4 dereferenceable(4) %3)
  %5 = load i32, i32* %3, align 16, !tbaa !5
  %6 = icmp eq i32 %5, -1
  br i1 %6, label %159, label %7

7:                                                ; preds = %0, %150
  %8 = phi i64 [ %154, %150 ], [ 0, %0 ]
  br label %9

9:                                                ; preds = %9, %7
  %10 = phi i64 [ %15, %9 ], [ 1, %7 ]
  %11 = getelementptr inbounds [100 x [15 x i32]], [100 x [15 x i32]]* %1, i64 0, i64 %8, i64 %10
  %12 = call nonnull align 8 dereferenceable(16) %"class.std::basic_istream"* @_ZNSirsERi(%"class.std::basic_istream"* nonnull align 8 dereferenceable(16) @_ZSt3cin, i32* nonnull align 4 dereferenceable(4) %11)
  %13 = load i32, i32* %11, align 4, !tbaa !5
  %14 = icmp eq i32 %13, 0
  %15 = add nuw i64 %10, 1
  br i1 %14, label %16, label %9, !llvm.loop !9

16:                                               ; preds = %9
  %17 = trunc i64 %10 to i32
  %18 = call i32 @llvm.umax.i32(i32 %17, i32 1)
  %19 = zext i32 %18 to i64
  %20 = and i64 %19, 4294967288
  %21 = add nsw i64 %20, -8
  %22 = lshr exact i64 %21, 3
  %23 = add nuw nsw i64 %22, 1
  %24 = icmp ult i32 %18, 8
  %25 = and i64 %19, 4294967288
  %26 = and i64 %23, 1
  %27 = icmp eq i64 %21, 0
  %28 = and i64 %23, 4611686018427387902
  %29 = icmp eq i64 %26, 0
  %30 = icmp eq i64 %25, %19
  br label %31

31:                                               ; preds = %16, %119
  %32 = phi i64 [ 0, %16 ], [ %121, %119 ]
  %33 = phi i32 [ 0, %16 ], [ %120, %119 ]
  %34 = getelementptr inbounds [100 x [15 x i32]], [100 x [15 x i32]]* %1, i64 0, i64 %8, i64 %32
  %35 = load i32, i32* %34, align 4, !tbaa !5
  br i1 %24, label %105, label %36

36:                                               ; preds = %31
  %37 = insertelement <4 x i32> <i32 poison, i32 0, i32 0, i32 0>, i32 %33, i32 0
  %38 = insertelement <4 x i32> poison, i32 %35, i32 0
  %39 = shufflevector <4 x i32> %38, <4 x i32> poison, <4 x i32> zeroinitializer
  %40 = insertelement <4 x i32> poison, i32 %35, i32 0
  %41 = shufflevector <4 x i32> %40, <4 x i32> poison, <4 x i32> zeroinitializer
  br i1 %27, label %79, label %42

42:                                               ; preds = %36, %42
  %43 = phi i64 [ %76, %42 ], [ 0, %36 ]
  %44 = phi <4 x i32> [ %74, %42 ], [ %37, %36 ]
  %45 = phi <4 x i32> [ %75, %42 ], [ zeroinitializer, %36 ]
  %46 = phi i64 [ %77, %42 ], [ %28, %36 ]
  %47 = getelementptr inbounds [100 x [15 x i32]], [100 x [15 x i32]]* %1, i64 0, i64 %8, i64 %43
  %48 = bitcast i32* %47 to <4 x i32>*
  %49 = load <4 x i32>, <4 x i32>* %48, align 4, !tbaa !5
  %50 = getelementptr inbounds i32, i32* %47, i64 4
  %51 = bitcast i32* %50 to <4 x i32>*
  %52 = load <4 x i32>, <4 x i32>* %51, align 4, !tbaa !5
  %53 = shl nsw <4 x i32> %49, <i32 1, i32 1, i32 1, i32 1>
  %54 = shl nsw <4 x i32> %52, <i32 1, i32 1, i32 1, i32 1>
  %55 = icmp eq <4 x i32> %39, %53
  %56 = icmp eq <4 x i32> %41, %54
  %57 = zext <4 x i1> %55 to <4 x i32>
  %58 = zext <4 x i1> %56 to <4 x i32>
  %59 = add <4 x i32> %44, %57
  %60 = add <4 x i32> %45, %58
  %61 = or i64 %43, 8
  %62 = getelementptr inbounds [100 x [15 x i32]], [100 x [15 x i32]]* %1, i64 0, i64 %8, i64 %61
  %63 = bitcast i32* %62 to <4 x i32>*
  %64 = load <4 x i32>, <4 x i32>* %63, align 4, !tbaa !5
  %65 = getelementptr inbounds i32, i32* %62, i64 4
  %66 = bitcast i32* %65 to <4 x i32>*
  %67 = load <4 x i32>, <4 x i32>* %66, align 4, !tbaa !5
  %68 = shl nsw <4 x i32> %64, <i32 1, i32 1, i32 1, i32 1>
  %69 = shl nsw <4 x i32> %67, <i32 1, i32 1, i32 1, i32 1>
  %70 = icmp eq <4 x i32> %39, %68
  %71 = icmp eq <4 x i32> %41, %69
  %72 = zext <4 x i1> %70 to <4 x i32>
  %73 = zext <4 x i1> %71 to <4 x i32>
  %74 = add <4 x i32> %59, %72
  %75 = add <4 x i32> %60, %73
  %76 = add nuw i64 %43, 16
  %77 = add i64 %46, -2
  %78 = icmp eq i64 %77, 0
  br i1 %78, label %79, label %42, !llvm.loop !11

79:                                               ; preds = %42, %36
  %80 = phi <4 x i32> [ undef, %36 ], [ %74, %42 ]
  %81 = phi <4 x i32> [ undef, %36 ], [ %75, %42 ]
  %82 = phi i64 [ 0, %36 ], [ %76, %42 ]
  %83 = phi <4 x i32> [ %37, %36 ], [ %74, %42 ]
  %84 = phi <4 x i32> [ zeroinitializer, %36 ], [ %75, %42 ]
  br i1 %29, label %100, label %85

85:                                               ; preds = %79
  %86 = getelementptr inbounds [100 x [15 x i32]], [100 x [15 x i32]]* %1, i64 0, i64 %8, i64 %82
  %87 = getelementptr inbounds i32, i32* %86, i64 4
  %88 = bitcast i32* %87 to <4 x i32>*
  %89 = load <4 x i32>, <4 x i32>* %88, align 4, !tbaa !5
  %90 = shl nsw <4 x i32> %89, <i32 1, i32 1, i32 1, i32 1>
  %91 = icmp eq <4 x i32> %41, %90
  %92 = zext <4 x i1> %91 to <4 x i32>
  %93 = add <4 x i32> %84, %92
  %94 = bitcast i32* %86 to <4 x i32>*
  %95 = load <4 x i32>, <4 x i32>* %94, align 4, !tbaa !5
  %96 = shl nsw <4 x i32> %95, <i32 1, i32 1, i32 1, i32 1>
  %97 = icmp eq <4 x i32> %39, %96
  %98 = zext <4 x i1> %97 to <4 x i32>
  %99 = add <4 x i32> %83, %98
  br label %100

100:                                              ; preds = %79, %85
  %101 = phi <4 x i32> [ %80, %79 ], [ %99, %85 ]
  %102 = phi <4 x i32> [ %81, %79 ], [ %93, %85 ]
  %103 = add <4 x i32> %102, %101
  %104 = call i32 @llvm.vector.reduce.add.v4i32(<4 x i32> %103)
  br i1 %30, label %119, label %105

105:                                              ; preds = %31, %100
  %106 = phi i64 [ 0, %31 ], [ %25, %100 ]
  %107 = phi i32 [ %33, %31 ], [ %104, %100 ]
  br label %108

108:                                              ; preds = %105, %108
  %109 = phi i64 [ %117, %108 ], [ %106, %105 ]
  %110 = phi i32 [ %116, %108 ], [ %107, %105 ]
  %111 = getelementptr inbounds [100 x [15 x i32]], [100 x [15 x i32]]* %1, i64 0, i64 %8, i64 %109
  %112 = load i32, i32* %111, align 4, !tbaa !5
  %113 = shl nsw i32 %112, 1
  %114 = icmp eq i32 %35, %113
  %115 = zext i1 %114 to i32
  %116 = add nsw i32 %110, %115
  %117 = add nuw nsw i64 %109, 1
  %118 = icmp eq i64 %117, %19
  br i1 %118, label %119, label %108, !llvm.loop !13

119:                                              ; preds = %108, %100
  %120 = phi i32 [ %104, %100 ], [ %116, %108 ]
  %121 = add nuw nsw i64 %32, 1
  %122 = icmp eq i64 %121, %19
  br i1 %122, label %123, label %31, !llvm.loop !15

123:                                              ; preds = %119
  %124 = call nonnull align 8 dereferenceable(8) %"class.std::basic_ostream"* @_ZNSolsEi(%"class.std::basic_ostream"* nonnull align 8 dereferenceable(8) @_ZSt4cout, i32 %120)
  %125 = bitcast %"class.std::basic_ostream"* %124 to i8**
  %126 = load i8*, i8** %125, align 8, !tbaa !16
  %127 = getelementptr i8, i8* %126, i64 -24
  %128 = bitcast i8* %127 to i64*
  %129 = load i64, i64* %128, align 8
  %130 = bitcast %"class.std::basic_ostream"* %124 to i8*
  %131 = add nsw i64 %129, 240
  %132 = getelementptr inbounds i8, i8* %130, i64 %131
  %133 = bitcast i8* %132 to %"class.std::ctype"**
  %134 = load %"class.std::ctype"*, %"class.std::ctype"** %133, align 8, !tbaa !18
  %135 = icmp eq %"class.std::ctype"* %134, null
  br i1 %135, label %136, label %137

136:                                              ; preds = %123
  call void @_ZSt16__throw_bad_castv() #10
  unreachable

137:                                              ; preds = %123
  %138 = getelementptr inbounds %"class.std::ctype", %"class.std::ctype"* %134, i64 0, i32 8
  %139 = load i8, i8* %138, align 8, !tbaa !22
  %140 = icmp eq i8 %139, 0
  br i1 %140, label %144, label %141

141:                                              ; preds = %137
  %142 = getelementptr inbounds %"class.std::ctype", %"class.std::ctype"* %134, i64 0, i32 9, i64 10
  %143 = load i8, i8* %142, align 1, !tbaa !24
  br label %150

144:                                              ; preds = %137
  call void @_ZNKSt5ctypeIcE13_M_widen_initEv(%"class.std::ctype"* nonnull align 8 dereferenceable(570) %134)
  %145 = bitcast %"class.std::ctype"* %134 to i8 (%"class.std::ctype"*, i8)***
  %146 = load i8 (%"class.std::ctype"*, i8)**, i8 (%"class.std::ctype"*, i8)*** %145, align 8, !tbaa !16
  %147 = getelementptr inbounds i8 (%"class.std::ctype"*, i8)*, i8 (%"class.std::ctype"*, i8)** %146, i64 6
  %148 = load i8 (%"class.std::ctype"*, i8)*, i8 (%"class.std::ctype"*, i8)** %147, align 8
  %149 = call signext i8 %148(%"class.std::ctype"* nonnull align 8 dereferenceable(570) %134, i8 signext 10)
  br label %150

150:                                              ; preds = %141, %144
  %151 = phi i8 [ %143, %141 ], [ %149, %144 ]
  %152 = call nonnull align 8 dereferenceable(8) %"class.std::basic_ostream"* @_ZNSo3putEc(%"class.std::basic_ostream"* nonnull align 8 dereferenceable(8) %124, i8 signext %151)
  %153 = call nonnull align 8 dereferenceable(8) %"class.std::basic_ostream"* @_ZNSo5flushEv(%"class.std::basic_ostream"* nonnull align 8 dereferenceable(8) %152)
  %154 = add nuw i64 %8, 1
  %155 = getelementptr inbounds [100 x [15 x i32]], [100 x [15 x i32]]* %1, i64 0, i64 %154, i64 0
  %156 = call nonnull align 8 dereferenceable(16) %"class.std::basic_istream"* @_ZNSirsERi(%"class.std::basic_istream"* nonnull align 8 dereferenceable(16) @_ZSt3cin, i32* nonnull align 4 dereferenceable(4) %155)
  %157 = load i32, i32* %155, align 4, !tbaa !5
  %158 = icmp eq i32 %157, -1
  br i1 %158, label %159, label %7, !llvm.loop !25

159:                                              ; preds = %150, %0
  call void @llvm.lifetime.end.p0i8(i64 6000, i8* nonnull %2) #9
  ret i32 0
}

; Function Attrs: argmemonly mustprogress nofree nosync nounwind willreturn
declare void @llvm.lifetime.start.p0i8(i64 immarg, i8* nocapture) #4

declare nonnull align 8 dereferenceable(16) %"class.std::basic_istream"* @_ZNSirsERi(%"class.std::basic_istream"* nonnull align 8 dereferenceable(16), i32* nonnull align 4 dereferenceable(4)) local_unnamed_addr #0

declare nonnull align 8 dereferenceable(8) %"class.std::basic_ostream"* @_ZNSolsEi(%"class.std::basic_ostream"* nonnull align 8 dereferenceable(8), i32) local_unnamed_addr #0

; Function Attrs: argmemonly mustprogress nofree nosync nounwind willreturn
declare void @llvm.lifetime.end.p0i8(i64 immarg, i8* nocapture) #4

declare nonnull align 8 dereferenceable(8) %"class.std::basic_ostream"* @_ZNSo3putEc(%"class.std::basic_ostream"* nonnull align 8 dereferenceable(8), i8 signext) local_unnamed_addr #0

declare nonnull align 8 dereferenceable(8) %"class.std::basic_ostream"* @_ZNSo5flushEv(%"class.std::basic_ostream"* nonnull align 8 dereferenceable(8)) local_unnamed_addr #0

; Function Attrs: noreturn
declare void @_ZSt16__throw_bad_castv() local_unnamed_addr #5

declare void @_ZNKSt5ctypeIcE13_M_widen_initEv(%"class.std::ctype"* nonnull align 8 dereferenceable(570)) local_unnamed_addr #0

; Function Attrs: sspstrong uwtable
define internal void @_GLOBAL__sub_I_1250.cpp() #6 section ".text.startup" {
  tail call void @_ZNSt8ios_base4InitC1Ev(%"class.std::ios_base::Init"* nonnull align 1 dereferenceable(1) @_ZStL8__ioinit)
  %1 = tail call i32 @__cxa_atexit(void (i8*)* bitcast (void (%"class.std::ios_base::Init"*)* @_ZNSt8ios_base4InitD1Ev to void (i8*)*), i8* getelementptr inbounds (%"class.std::ios_base::Init", %"class.std::ios_base::Init"* @_ZStL8__ioinit, i64 0, i32 0), i8* nonnull @__dso_handle) #9
  ret void
}

; Function Attrs: nofree nosync nounwind readnone speculatable willreturn
declare i32 @llvm.umax.i32(i32, i32) #7

; Function Attrs: nofree nosync nounwind readnone willreturn
declare i32 @llvm.vector.reduce.add.v4i32(<4 x i32>) #8


!llvm.module.flags = !{!0, !1, !2, !3}
!llvm.ident = !{!4}

!0 = !{i32 1, !"wchar_size", i32 4}
!1 = !{i32 7, !"PIC Level", i32 2}
!2 = !{i32 7, !"PIE Level", i32 2}
!3 = !{i32 7, !"uwtable", i32 1}
!4 = !{!"clang version 13.0.0"}
!5 = !{!6, !6, i64 0}
!6 = !{!"int", !7, i64 0}
!7 = !{!"omnipotent char", !8, i64 0}
!8 = !{!"Simple C++ TBAA"}
!9 = distinct !{!9, !10}
!10 = !{!"llvm.loop.mustprogress"}
!11 = distinct !{!11, !10, !12}
!12 = !{!"llvm.loop.isvectorized", i32 1}
!13 = distinct !{!13, !10, !14, !12}
!14 = !{!"llvm.loop.unroll.runtime.disable"}
!15 = distinct !{!15, !10}
!16 = !{!17, !17, i64 0}
!17 = !{!"vtable pointer", !8, i64 0}
!18 = !{!19, !20, i64 240}
!19 = !{!"_ZTSSt9basic_iosIcSt11char_traitsIcEE", !20, i64 216, !7, i64 224, !21, i64 225, !20, i64 232, !20, i64 240, !20, i64 248, !20, i64 256}
!20 = !{!"any pointer", !7, i64 0}
!21 = !{!"bool", !7, i64 0}
!22 = !{!23, !7, i64 56}
!23 = !{!"_ZTSSt5ctypeIcE", !20, i64 16, !21, i64 24, !20, i64 32, !20, i64 40, !20, i64 48, !7, i64 56, !7, i64 57, !7, i64 313, !7, i64 569}
!24 = !{!7, !7, i64 0}
!25 = distinct !{!25, !10}
